; ModuleID = '63/1989.c'
source_filename = "63/1989.c"
target datalayout = "e-m:e-p270:32:32-p271:32:32-p272:64:64-i64:64-f80:128-n8:16:32:64-S128"
target triple = "x86_64-pc-linux-gnu"

@.str = private unnamed_addr constant [6 x i8] c"%d %d\00", align 1
@.str.1 = private unnamed_addr constant [3 x i8] c"%d\00", align 1
@.str.2 = private unnamed_addr constant [4 x i8] c" %d\00", align 1
@.str.3 = private unnamed_addr constant [2 x i8] c"\0A\00", align 1

; Function Attrs: noinline nounwind uwtable
define dso_local i32 @main() #0 {
  %1 = alloca i32, align 4
  %2 = alloca [100 x [100 x i32]], align 16
  %3 = alloca [100 x [100 x i32]], align 16
  %4 = alloca i32, align 4
  %5 = alloca i32, align 4
  %6 = alloca i32, align 4
  %7 = alloca i32, align 4
  %8 = alloca i32, align 4
  %9 = alloca i32, align 4
  %10 = alloca i32, align 4
  %11 = alloca i32, align 4
  %12 = alloca [100 x [100 x i32]], align 16
  %13 = alloca i32, align 4
  %14 = alloca i32, align 4
  %15 = alloca i32, align 4
  %16 = alloca i32, align 4
  store i32 0, i32* %1, align 4
  store i32 0, i32* %15, align 4
  %17 = call i32 (i8*, ...) @__isoc99_scanf(i8* getelementptr inbounds ([6 x i8], [6 x i8]* @.str, i64 0, i64 0), i32* %4, i32* %5)
  store i32 0, i32* %8, align 4
  br label %18

18:                                               ; preds = %39, %0
  %19 = load i32, i32* %8, align 4
  %20 = load i32, i32* %4, align 4
  %21 = icmp slt i32 %19, %20
  br i1 %21, label %22, label %42

22:                                               ; preds = %18
  store i32 0, i32* %9, align 4
  br label %23

23:                                               ; preds = %35, %22
  %24 = load i32, i32* %9, align 4
  %25 = load i32, i32* %5, align 4
  %26 = icmp slt i32 %24, %25
  br i1 %26, label %27, label %38

27:                                               ; preds = %23
  %28 = load i32, i32* %8, align 4
  %29 = sext i32 %28 to i64
  %30 = getelementptr inbounds [100 x [100 x i32]], [100 x [100 x i32]]* %2, i64 0, i64 %29
  %31 = load i32, i32* %9, align 4
  %32 = sext i32 %31 to i64
  %33 = getelementptr inbounds [100 x i32], [100 x i32]* %30, i64 0, i64 %32
  %34 = call i32 (i8*, ...) @__isoc99_scanf(i8* getelementptr inbounds ([3 x i8], [3 x i8]* @.str.1, i64 0, i64 0), i32* %33)
  br label %35

35:                                               ; preds = %27
  %36 = load i32, i32* %9, align 4
  %37 = add nsw i32 %36, 1
  store i32 %37, i32* %9, align 4
  br label %23

38:                                               ; preds = %23
  br label %39

39:                                               ; preds = %38
  %40 = load i32, i32* %8, align 4
  %41 = add nsw i32 %40, 1
  store i32 %41, i32* %8, align 4
  br label %18

42:                                               ; preds = %18
  %43 = call i32 (i8*, ...) @__isoc99_scanf(i8* getelementptr inbounds ([6 x i8], [6 x i8]* @.str, i64 0, i64 0), i32* %6, i32* %7)
  store i32 0, i32* %11, align 4
  br label %44

44:                                               ; preds = %65, %42
  %45 = load i32, i32* %11, align 4
  %46 = load i32, i32* %6, align 4
  %47 = icmp slt i32 %45, %46
  br i1 %47, label %48, label %68

48:                                               ; preds = %44
  store i32 0, i32* %10, align 4
  br label %49

49:                                               ; preds = %61, %48
  %50 = load i32, i32* %10, align 4
  %51 = load i32, i32* %7, align 4
  %52 = icmp slt i32 %50, %51
  br i1 %52, label %53, label %64

53:                                               ; preds = %49
  %54 = load i32, i32* %11, align 4
  %55 = sext i32 %54 to i64
  %56 = getelementptr inbounds [100 x [100 x i32]], [100 x [100 x i32]]* %3, i64 0, i64 %55
  %57 = load i32, i32* %10, align 4
  %58 = sext i32 %57 to i64
  %59 = getelementptr inbounds [100 x i32], [100 x i32]* %56, i64 0, i64 %58
  %60 = call i32 (i8*, ...) @__isoc99_scanf(i8* getelementptr inbounds ([3 x i8], [3 x i8]* @.str.1, i64 0, i64 0), i32* %59)
  br label %61

61:                                               ; preds = %53
  %62 = load i32, i32* %10, align 4
  %63 = add nsw i32 %62, 1
  store i32 %63, i32* %10, align 4
  br label %49

64:                                               ; preds = %49
  br label %65

65:                                               ; preds = %64
  %66 = load i32, i32* %11, align 4
  %67 = add nsw i32 %66, 1
  store i32 %67, i32* %11, align 4
  br label %44

68:                                               ; preds = %44
  store i32 0, i32* %13, align 4
  br label %69

69:                                               ; preds = %116, %68
  %70 = load i32, i32* %13, align 4
  %71 = load i32, i32* %4, align 4
  %72 = icmp slt i32 %70, %71
  br i1 %72, label %73, label %119

73:                                               ; preds = %69
  store i32 0, i32* %14, align 4
  br label %74

74:                                               ; preds = %112, %73
  %75 = load i32, i32* %14, align 4
  %76 = load i32, i32* %7, align 4
  %77 = icmp slt i32 %75, %76
  br i1 %77, label %78, label %115

78:                                               ; preds = %74
  store i32 0, i32* %16, align 4
  br label %79

79:                                               ; preds = %101, %78
  %80 = load i32, i32* %16, align 4
  %81 = load i32, i32* %6, align 4
  %82 = icmp slt i32 %80, %81
  br i1 %82, label %83, label %104

83:                                               ; preds = %79
  %84 = load i32, i32* %15, align 4
  %85 = load i32, i32* %13, align 4
  %86 = sext i32 %85 to i64
  %87 = getelementptr inbounds [100 x [100 x i32]], [100 x [100 x i32]]* %2, i64 0, i64 %86
  %88 = load i32, i32* %16, align 4
  %89 = sext i32 %88 to i64
  %90 = getelementptr inbounds [100 x i32], [100 x i32]* %87, i64 0, i64 %89
  %91 = load i32, i32* %90, align 4
  %92 = load i32, i32* %16, align 4
  %93 = sext i32 %92 to i64
  %94 = getelementptr inbounds [100 x [100 x i32]], [100 x [100 x i32]]* %3, i64 0, i64 %93
  %95 = load i32, i32* %14, align 4
  %96 = sext i32 %95 to i64
  %97 = getelementptr inbounds [100 x i32], [100 x i32]* %94, i64 0, i64 %96
  %98 = load i32, i32* %97, align 4
  %99 = mul nsw i32 %91, %98
  %100 = add nsw i32 %84, %99
  store i32 %100, i32* %15, align 4
  br label %101

101:                                              ; preds = %83
  %102 = load i32, i32* %16, align 4
  %103 = add nsw i32 %102, 1
  store i32 %103, i32* %16, align 4
  br label %79

104:                                              ; preds = %79
  %105 = load i32, i32* %15, align 4
  %106 = load i32, i32* %13, align 4
  %107 = sext i32 %106 to i64
  %108 = getelementptr inbounds [100 x [100 x i32]], [100 x [100 x i32]]* %12, i64 0, i64 %107
  %109 = load i32, i32* %14, align 4
  %110 = sext i32 %109 to i64
  %111 = getelementptr inbounds [100 x i32], [100 x i32]* %108, i64 0, i64 %110
  store i32 %105, i32* %111, align 4
  store i32 0, i32* %15, align 4
  br label %112

112:                                              ; preds = %104
  %113 = load i32, i32* %14, align 4
  %114 = add nsw i32 %113, 1
  store i32 %114, i32* %14, align 4
  br label %74

115:                                              ; preds = %74
  br label %116

116:                                              ; preds = %115
  %117 = load i32, i32* %13, align 4
  %118 = add nsw i32 %117, 1
  store i32 %118, i32* %13, align 4
  br label %69

119:                                              ; preds = %69
  store i32 0, i32* %13, align 4
  br label %120

120:                                              ; preds = %156, %119
  %121 = load i32, i32* %13, align 4
  %122 = load i32, i32* %4, align 4
  %123 = icmp slt i32 %121, %122
  br i1 %123, label %124, label %159

124:                                              ; preds = %120
  store i32 0, i32* %14, align 4
  br label %125

125:                                              ; preds = %151, %124
  %126 = load i32, i32* %14, align 4
  %127 = load i32, i32* %7, align 4
  %128 = icmp slt i32 %126, %127
  br i1 %128, label %129, label %154

129:                                              ; preds = %125
  %130 = load i32, i32* %14, align 4
  %131 = icmp eq i32 %130, 0
  br i1 %131, label %132, label %141

132:                                              ; preds = %129
  %133 = load i32, i32* %13, align 4
  %134 = sext i32 %133 to i64
  %135 = getelementptr inbounds [100 x [100 x i32]], [100 x [100 x i32]]* %12, i64 0, i64 %134
  %136 = load i32, i32* %14, align 4
  %137 = sext i32 %136 to i64
  %138 = getelementptr inbounds [100 x i32], [100 x i32]* %135, i64 0, i64 %137
  %139 = load i32, i32* %138, align 4
  %140 = call i32 (i8*, ...) @printf(i8* getelementptr inbounds ([3 x i8], [3 x i8]* @.str.1, i64 0, i64 0), i32 %139)
  br label %150

141:                                              ; preds = %129
  %142 = load i32, i32* %13, align 4
  %143 = sext i32 %142 to i64
  %144 = getelementptr inbounds [100 x [100 x i32]], [100 x [100 x i32]]* %12, i64 0, i64 %143
  %145 = load i32, i32* %14, align 4
  %146 = sext i32 %145 to i64
  %147 = getelementptr inbounds [100 x i32], [100 x i32]* %144, i64 0, i64 %146
  %148 = load i32, i32* %147, align 4
  %149 = call i32 (i8*, ...) @printf(i8* getelementptr inbounds ([4 x i8], [4 x i8]* @.str.2, i64 0, i64 0), i32 %148)
  br label %150

150:                                              ; preds = %141, %132
  br label %151

151:                                              ; preds = %150
  %152 = load i32, i32* %14, align 4
  %153 = add nsw i32 %152, 1
  store i32 %153, i32* %14, align 4
  br label %125

154:                                              ; preds = %125
  %155 = call i32 (i8*, ...) @printf(i8* getelementptr inbounds ([2 x i8], [2 x i8]* @.str.3, i64 0, i64 0))
  br label %156

156:                                              ; preds = %154
  %157 = load i32, i32* %13, align 4
  %158 = add nsw i32 %157, 1
  store i32 %158, i32* %13, align 4
  br label %120

159:                                              ; preds = %120
  %160 = load i32, i32* %1, align 4
  ret i32 %160
}

declare dso_local i32 @__isoc99_scanf(i8*, ...) #1

declare dso_local i32 @printf(i8*, ...) #1


!llvm.module.flags = !{!0}
!llvm.ident = !{!1}

!0 = !{i32 1, !"wchar_size", i32 4}
!1 = !{!"clang version 10.0.0-4ubuntu1 "}
